; Function Attrs: nounwind uwtable
define noalias noundef ptr @Ioa_WriteEncodeLiterals(ptr noundef readonly captures(none) %0) local_unnamed_addr #2 {
  %2 = getelementptr i8, ptr %0, i64 4
  %.val = load i32, ptr %2, align 4, !tbaa !17
  %3 = shl nsw i32 %.val, 1
  %4 = tail call noalias dereferenceable_or_null(16) ptr @malloc(i64 noundef 16) #13
  %5 = add i32 %3, -1
  %or.cond.i = icmp ult i32 %5, 15
  %spec.store.select.i = select i1 %or.cond.i, i32 16, i32 %3
  %6 = getelementptr inbounds nuw i8, ptr %4, i64 4
  store i32 0, ptr %6, align 4, !tbaa !8
  store i32 %spec.store.select.i, ptr %4, align 8, !tbaa !13
  %.not.i = icmp eq i32 %spec.store.select.i, 0
  br i1 %.not.i, label %Vec_StrAlloc.exit, label %7

7:                                                ; preds = %1
  %8 = sext i32 %spec.store.select.i to i64
  %9 = tail call noalias ptr @malloc(i64 noundef %8) #13
  br label %Vec_StrAlloc.exit

Vec_StrAlloc.exit:                                ; preds = %1, %7
  %.promoted = phi ptr [ %9, %7 ], [ null, %1 ]
  %10 = getelementptr inbounds nuw i8, ptr %4, i64 8
  store ptr %.promoted, ptr %10, align 8, !tbaa !14
  %11 = getelementptr i8, ptr %0, i64 8
  %.val33 = load ptr, ptr %11, align 8, !tbaa !21
  %12 = load i32, ptr %.val33, align 4, !tbaa !16
  %.not11.i = icmp ult i32 %12, 128
  br i1 %.not11.i, label %Ioa_WriteAigerEncode.exit, label %.lr.ph.i

.lr.ph.i:                                         ; preds = %Vec_StrAlloc.exit, %.lr.ph.i
  %indvars.iv.i = phi i64 [ %indvars.iv.next.i, %.lr.ph.i ], [ 0, %Vec_StrAlloc.exit ]
  %.013.i = phi i32 [ %16, %.lr.ph.i ], [ %12, %Vec_StrAlloc.exit ]
  %13 = trunc i32 %.013.i to i8
  %14 = or i8 %13, -128
  %indvars.iv.next.i = add nuw nsw i64 %indvars.iv.i, 1
  %15 = getelementptr inbounds nuw i8, ptr %.promoted, i64 %indvars.iv.i
  store i8 %14, ptr %15, align 1, !tbaa !3
  %16 = lshr i32 %.013.i, 7
  %.not.i37 = icmp ult i32 %.013.i, 16384
  br i1 %.not.i37, label %._crit_edge.loopexit.i, label %.lr.ph.i, !llvm.loop !6

._crit_edge.loopexit.i:                           ; preds = %.lr.ph.i
  %17 = trunc nsw i64 %indvars.iv.next.i to i32
  br label %Ioa_WriteAigerEncode.exit

Ioa_WriteAigerEncode.exit:                        ; preds = %Vec_StrAlloc.exit, %._crit_edge.loopexit.i
  %.010.lcssa.i = phi i32 [ 0, %Vec_StrAlloc.exit ], [ %17, %._crit_edge.loopexit.i ]
  %.0.lcssa.i = phi i32 [ %12, %Vec_StrAlloc.exit ], [ %16, %._crit_edge.loopexit.i ]
  %18 = trunc nuw i32 %.0.lcssa.i to i8
  %19 = sext i32 %.010.lcssa.i to i64
  %20 = getelementptr inbounds i8, ptr %.promoted, i64 %19
  store i8 %18, ptr %20, align 1, !tbaa !3
  %.02951 = add nsw i32 %.010.lcssa.i, 1
  %21 = icmp sgt i32 %.val, 1
  br i1 %21, label %.lr.ph, label %.critedge

.lr.ph:                                           ; preds = %Ioa_WriteAigerEncode.exit, %47
  %indvars.iv = phi i64 [ %indvars.iv.next, %47 ], [ 1, %Ioa_WriteAigerEncode.exit ]
  %22 = phi i32 [ %48, %47 ], [ %spec.store.select.i, %Ioa_WriteAigerEncode.exit ]
  %23 = phi ptr [ %49, %47 ], [ %.promoted, %Ioa_WriteAigerEncode.exit ]
  %.02955 = phi i32 [ %.029, %47 ], [ %.02951, %Ioa_WriteAigerEncode.exit ]
  %.03053 = phi i32 [ %25, %47 ], [ %12, %Ioa_WriteAigerEncode.exit ]
  %.val34 = load ptr, ptr %11, align 8, !tbaa !21
  %24 = getelementptr inbounds nuw i32, ptr %.val34, i64 %indvars.iv
  %25 = load i32, ptr %24, align 4, !tbaa !16
  %26 = sub nsw i32 %25, %.03053
  %27 = icmp slt i32 %25, %.03053
  %28 = sub nsw i32 0, %26
  %29 = select i1 %27, i32 %28, i32 %26
  %30 = shl i32 %29, 1
  %31 = zext i1 %27 to i32
  %32 = or disjoint i32 %30, %31
  %.not11.i38 = icmp ult i32 %30, 128
  br i1 %.not11.i38, label %Ioa_WriteAigerEncode.exit48, label %.lr.ph.preheader.i39

.lr.ph.preheader.i39:                             ; preds = %.lr.ph
  %33 = sext i32 %.02955 to i64
  br label %.lr.ph.i40

.lr.ph.i40:                                       ; preds = %.lr.ph.i40, %.lr.ph.preheader.i39
  %indvars.iv.i41 = phi i64 [ %33, %.lr.ph.preheader.i39 ], [ %indvars.iv.next.i43, %.lr.ph.i40 ]
  %.013.i42 = phi i32 [ %32, %.lr.ph.preheader.i39 ], [ %37, %.lr.ph.i40 ]
  %34 = trunc i32 %.013.i42 to i8
  %35 = or i8 %34, -128
  %indvars.iv.next.i43 = add nsw i64 %indvars.iv.i41, 1
  %36 = getelementptr inbounds i8, ptr %23, i64 %indvars.iv.i41
  store i8 %35, ptr %36, align 1, !tbaa !3
  %37 = lshr i32 %.013.i42, 7
  %.not.i44 = icmp ult i32 %.013.i42, 16384
  br i1 %.not.i44, label %._crit_edge.loopexit.i45, label %.lr.ph.i40, !llvm.loop !6

._crit_edge.loopexit.i45:                         ; preds = %.lr.ph.i40
  %38 = trunc nsw i64 %indvars.iv.next.i43 to i32
  br label %Ioa_WriteAigerEncode.exit48

Ioa_WriteAigerEncode.exit48:                      ; preds = %.lr.ph, %._crit_edge.loopexit.i45
  %.010.lcssa.i46 = phi i32 [ %.02955, %.lr.ph ], [ %38, %._crit_edge.loopexit.i45 ]
  %.0.lcssa.i47 = phi i32 [ %32, %.lr.ph ], [ %37, %._crit_edge.loopexit.i45 ]
  %39 = trunc nuw i32 %.0.lcssa.i47 to i8
  %40 = sext i32 %.010.lcssa.i46 to i64
  %41 = getelementptr inbounds i8, ptr %23, i64 %40
  store i8 %39, ptr %41, align 1, !tbaa !3
  %42 = add nsw i32 %.010.lcssa.i46, 11
  %43 = icmp sgt i32 %42, %22
  br i1 %43, label %Vec_StrGrow.exit, label %47

Vec_StrGrow.exit:                                 ; preds = %Ioa_WriteAigerEncode.exit48
  %44 = add nsw i32 %22, 1
  %45 = sext i32 %44 to i64
  %46 = tail call ptr @realloc(ptr noundef nonnull %23, i64 noundef %45) #12
  br label %47

47:                                               ; preds = %Ioa_WriteAigerEncode.exit48, %Vec_StrGrow.exit
  %48 = phi i32 [ %22, %Ioa_WriteAigerEncode.exit48 ], [ %44, %Vec_StrGrow.exit ]
  %49 = phi ptr [ %23, %Ioa_WriteAigerEncode.exit48 ], [ %46, %Vec_StrGrow.exit ]
  %indvars.iv.next = add nuw nsw i64 %indvars.iv, 1
  %.029 = add nsw i32 %.010.lcssa.i46, 1
  %.val32 = load i32, ptr %2, align 4, !tbaa !17
  %50 = sext i32 %.val32 to i64
  %51 = icmp slt i64 %indvars.iv.next, %50
  br i1 %51, label %.lr.ph, label %..critedge_crit_edge, !llvm.loop !42

..critedge_crit_edge:                             ; preds = %47
  store ptr %49, ptr %10, align 8
  store i32 %48, ptr %4, align 8
  br label %.critedge

.critedge:                                        ; preds = %..critedge_crit_edge, %Ioa_WriteAigerEncode.exit
  %.029.lcssa = phi i32 [ %.029, %..critedge_crit_edge ], [ %.02951, %Ioa_WriteAigerEncode.exit ]
  store i32 %.029.lcssa, ptr %6, align 4, !tbaa !8
  ret ptr %4
}